; Function Attrs: mustprogress nofree norecurse nosync nounwind willreturn memory(argmem: write) uwtable
define void @_ZN4LIEF7VisitorC2Ev(ptr noundef nonnull align 8 dereferenceable(56) %0) unnamed_addr #0 align 2 personality ptr @__gxx_personality_v0 {
  store ptr getelementptr inbounds ({ [167 x ptr] }, ptr @_ZTVN4LIEF7VisitorE, i64 0, i32 0, i64 2), ptr %0, align 8
  %2 = getelementptr inbounds i8, ptr %0, i64 16
  store i32 0, ptr %2, align 8
  %3 = getelementptr inbounds i8, ptr %0, i64 24
  store ptr null, ptr %3, align 8
  %4 = getelementptr inbounds i8, ptr %0, i64 32
  store ptr %2, ptr %4, align 8
  %5 = getelementptr inbounds i8, ptr %0, i64 40
  store ptr %2, ptr %5, align 8
  %6 = getelementptr inbounds i8, ptr %0, i64 48
  store i64 0, ptr %6, align 8
  ret void
}